target datalayout = "e-m:e-p270:32:32-p271:32:32-p272:64:64-i64:64-i128:128-f80:128-n8:16:32:64-S128"
target triple = "x86_64-pc-linux-gnu"

%struct.varattrib_1b = type { i8, [0 x i8] }
%struct.varattrib_1b_e = type { i8, i8, [0 x i8] }

@CurrentMemoryContext = external global ptr, align 8

; Function Attrs: inlinehint nounwind uwtable
define internal ptr @DatumGetPointer(i64 noundef %0) #2 {
  %2 = alloca i64, align 8
  store i64 %0, ptr %2, align 8
  %3 = load i64, ptr %2, align 8
  %4 = inttoptr i64 %3 to ptr
  ret ptr %4
}

; Function Attrs: nounwind uwtable
define dso_local i64 @datumTransfer(i64 noundef %0, i1 noundef zeroext %1, i32 noundef %2) #0 {
  %4 = alloca i64, align 8
  %5 = alloca i8, align 1
  %6 = alloca i32, align 4
  store i64 %0, ptr %4, align 8
  %7 = zext i1 %1 to i8
  store i8 %7, ptr %5, align 1
  store i32 %2, ptr %6, align 4
  %8 = load i8, ptr %5, align 1, !range !4, !noundef !5
  %9 = trunc i8 %8 to i1
  br i1 %9, label %31, label %10

10:                                               ; preds = %3
  %11 = load i32, ptr %6, align 4
  %12 = icmp eq i32 %11, -1
  br i1 %12, label %13, label %31

13:                                               ; preds = %10
  %14 = load i64, ptr %4, align 8
  %15 = call ptr @DatumGetPointer(i64 noundef %14)
  %16 = getelementptr inbounds nuw %struct.varattrib_1b, ptr %15, i32 0, i32 0
  %17 = load i8, ptr %16, align 1
  %18 = zext i8 %17 to i32
  %19 = icmp eq i32 %18, 1
  br i1 %19, label %20, label %31

20:                                               ; preds = %13
  %21 = load i64, ptr %4, align 8
  %22 = call ptr @DatumGetPointer(i64 noundef %21)
  %23 = getelementptr inbounds nuw %struct.varattrib_1b_e, ptr %22, i32 0, i32 1
  %24 = load i8, ptr %23, align 1
  %25 = zext i8 %24 to i32
  %26 = icmp eq i32 %25, 3
  br i1 %26, label %27, label %31

27:                                               ; preds = %20
  %28 = load i64, ptr %4, align 8
  %29 = load ptr, ptr @CurrentMemoryContext, align 8
  %30 = call i64 @TransferExpandedObject(i64 noundef %28, ptr noundef %29)
  store i64 %30, ptr %4, align 8
  br label %37

31:                                               ; preds = %20, %13, %10, %3
  %32 = load i64, ptr %4, align 8
  %33 = load i8, ptr %5, align 1, !range !4, !noundef !5
  %34 = trunc i8 %33 to i1
  %35 = load i32, ptr %6, align 4
  %36 = call i64 @datumCopy(i64 noundef %32, i1 noundef zeroext %34, i32 noundef %35)
  store i64 %36, ptr %4, align 8
  br label %37

37:                                               ; preds = %31, %27
  %38 = load i64, ptr %4, align 8
  ret i64 %38
}