; Function Attrs: nounwind uwtable
define dso_local i64 @datumTransfer(i64 noundef %0, i1 noundef zeroext %1, i32 noundef %2) local_unnamed_addr #0 {
  %4 = icmp ne i32 %2, -1
  %or.cond.not = or i1 %1, %4
  br i1 %or.cond.not, label %16, label %5

5:                                                ; preds = %3
  %6 = inttoptr i64 %0 to ptr
  %7 = load i8, ptr %6, align 1
  %8 = icmp eq i8 %7, 1
  br i1 %8, label %9, label %16

9:                                                ; preds = %5
  %10 = getelementptr inbounds nuw i8, ptr %6, i64 1
  %11 = load i8, ptr %10, align 1
  %12 = icmp eq i8 %11, 3
  br i1 %12, label %13, label %16

13:                                               ; preds = %9
  %14 = load ptr, ptr @CurrentMemoryContext, align 8
  %15 = tail call i64 @TransferExpandedObject(i64 noundef %0, ptr noundef %14) #9
  br label %18

16:                                               ; preds = %9, %5, %3
  %17 = tail call i64 @datumCopy(i64 noundef %0, i1 noundef zeroext %1, i32 noundef %2)
  br label %18

18:                                               ; preds = %16, %13
  %.0 = phi i64 [ %15, %13 ], [ %17, %16 ]
  ret i64 %.0
}